target datalayout = "e-m:e-p270:32:32-p271:32:32-p272:64:64-i64:64-i128:128-f80:128-n8:16:32:64-S128"
target triple = "x86_64-pc-linux-gnu"

%"class.std::__cxx11::basic_string" = type { %"struct.std::__cxx11::basic_string<char>::_Alloc_hider", i64, %union.anon }
%"struct.std::__cxx11::basic_string<char>::_Alloc_hider" = type { ptr }
%union.anon = type { i64, [8 x i8] }
%class.TCompiler = type <{ %class.TShHandleBase, ptr, i32, i8, [3 x i8] }>
%class.TShHandleBase = type { ptr, ptr }
%class.TInfoSink = type { %"class.glslang::TInfoSinkBase", %"class.glslang::TInfoSinkBase" }
%"class.glslang::TInfoSinkBase" = type { %"class.std::__cxx11::basic_string", i32, ptr }
%"class.glslang::TShader" = type <{ ptr, ptr, i32, [4 x i8], ptr, ptr, ptr, ptr, ptr, ptr, i32, [4 x i8], ptr, %"class.std::__cxx11::basic_string", i32, %"struct.glslang::TEnvironment", i8, [3 x i8] }>
%"struct.glslang::TEnvironment" = type { %"struct.glslang::TInputLanguage", %"struct.glslang::TClient", %"struct.glslang::TTarget" }
%"struct.glslang::TInputLanguage" = type { i32, i32, i32, i32, i8 }
%"struct.glslang::TClient" = type { i32, i32 }
%"struct.glslang::TTarget" = type { i32, i32, i8 }

@.str = private unnamed_addr constant [1 x i8] zeroinitializer, align 1
@_ZTVN7glslang7TShaderE = unnamed_addr constant { [4 x ptr] } { [4 x ptr] [ptr null, ptr null, ptr @_ZN7glslang7TShaderD1Ev, ptr @_ZN7glslang7TShaderD0Ev] }, align 8

; Function Attrs: mustprogress nounwind uwtable
define linkonce_odr void @_ZN13TShHandleBaseC2Ev(ptr noundef nonnull align 8 dereferenceable(16) %0) unnamed_addr #4 comdat align 2 {
  %2 = alloca ptr, align 8
  store ptr %0, ptr %2, align 8
  %3 = load ptr, ptr %2, align 8
  store ptr getelementptr inbounds inrange(-16, 48) ({ [8 x ptr] }, ptr @_ZTV13TShHandleBase, i32 0, i32 0, i32 2), ptr %3, align 8
  %4 = call noalias noundef nonnull ptr @_Znwm(i64 noundef 96) #14
  call void @_ZN7glslang14TPoolAllocatorC1Eii(ptr noundef nonnull align 8 dereferenceable(96) %4, i32 noundef 8192, i32 noundef 16)
  %5 = getelementptr inbounds %class.TShHandleBase, ptr %3, i32 0, i32 1
  store ptr %4, ptr %5, align 8
  ret void
}

; Function Attrs: mustprogress nounwind uwtable
define linkonce_odr void @_ZN9TCompilerC2E11EShLanguageR9TInfoSink(ptr noundef nonnull align 8 dereferenceable(29) %0, i32 noundef %1, ptr noundef nonnull align 8 dereferenceable(96) %2) unnamed_addr #4 comdat align 2 {
  %4 = alloca ptr, align 8
  %5 = alloca i32, align 4
  %6 = alloca ptr, align 8
  store ptr %0, ptr %4, align 8
  store i32 %1, ptr %5, align 4
  store ptr %2, ptr %6, align 8
  %7 = load ptr, ptr %4, align 8
  call void @_ZN13TShHandleBaseC2Ev(ptr noundef nonnull align 8 dereferenceable(16) %7)
  store ptr getelementptr inbounds inrange(-16, 72) ({ [11 x ptr] }, ptr @_ZTV9TCompiler, i32 0, i32 0, i32 2), ptr %7, align 8
  %8 = getelementptr inbounds %class.TCompiler, ptr %7, i32 0, i32 1
  %9 = load ptr, ptr %6, align 8
  store ptr %9, ptr %8, align 8
  %10 = getelementptr inbounds %class.TCompiler, ptr %7, i32 0, i32 2
  %11 = load i32, ptr %5, align 4
  store i32 %11, ptr %10, align 8
  %12 = getelementptr inbounds %class.TCompiler, ptr %7, i32 0, i32 3
  store i8 0, ptr %12, align 4
  ret void
}

; Function Attrs: mustprogress nounwind uwtable
define linkonce_odr void @_ZN7glslang13TInfoSinkBaseC2Ev(ptr noundef nonnull align 8 dereferenceable(48) %0) unnamed_addr #4 comdat align 2 {
  %2 = alloca ptr, align 8
  store ptr %0, ptr %2, align 8
  %3 = load ptr, ptr %2, align 8
  %4 = getelementptr inbounds %"class.glslang::TInfoSinkBase", ptr %3, i32 0, i32 0
  call void @_ZNSt7__cxx1112basic_stringIcSt11char_traitsIcESaIcEEC1Ev(ptr noundef nonnull align 8 dereferenceable(32) %4) #3
  %5 = getelementptr inbounds %"class.glslang::TInfoSinkBase", ptr %3, i32 0, i32 1
  store i32 4, ptr %5, align 8
  %6 = getelementptr inbounds %"class.glslang::TInfoSinkBase", ptr %3, i32 0, i32 2
  store ptr null, ptr %6, align 8
  ret void
}

; Function Attrs: mustprogress nounwind uwtable
define linkonce_odr void @_ZN7glslang17TDeferredCompilerC2E11EShLanguageR9TInfoSink(ptr noundef nonnull align 8 dereferenceable(29) %0, i32 noundef %1, ptr noundef nonnull align 8 dereferenceable(96) %2) unnamed_addr #4 comdat align 2 {
  %4 = alloca ptr, align 8
  %5 = alloca i32, align 4
  %6 = alloca ptr, align 8
  store ptr %0, ptr %4, align 8
  store i32 %1, ptr %5, align 4
  store ptr %2, ptr %6, align 8
  %7 = load ptr, ptr %4, align 8
  %8 = load i32, ptr %5, align 4
  %9 = load ptr, ptr %6, align 8
  call void @_ZN9TCompilerC2E11EShLanguageR9TInfoSink(ptr noundef nonnull align 8 dereferenceable(29) %7, i32 noundef %8, ptr noundef nonnull align 8 dereferenceable(96) %9)
  store ptr getelementptr inbounds inrange(-16, 72) ({ [11 x ptr] }, ptr @_ZTVN7glslang17TDeferredCompilerE, i32 0, i32 0, i32 2), ptr %7, align 8
  ret void
}

; Function Attrs: mustprogress nounwind uwtable
define linkonce_odr void @_ZN9TInfoSinkC2Ev(ptr noundef nonnull align 8 dereferenceable(96) %0) unnamed_addr #4 comdat align 2 {
  %2 = alloca ptr, align 8
  store ptr %0, ptr %2, align 8
  %3 = load ptr, ptr %2, align 8
  %4 = getelementptr inbounds %class.TInfoSink, ptr %3, i32 0, i32 0
  call void @_ZN7glslang13TInfoSinkBaseC2Ev(ptr noundef nonnull align 8 dereferenceable(48) %4)
  %5 = getelementptr inbounds %class.TInfoSink, ptr %3, i32 0, i32 1
  call void @_ZN7glslang13TInfoSinkBaseC2Ev(ptr noundef nonnull align 8 dereferenceable(48) %5)
  ret void
}

; Function Attrs: mustprogress nounwind uwtable
define void @_ZN7glslang7TShaderC2E11EShLanguage(ptr noundef nonnull align 8 dereferenceable(165) %0, i32 noundef %1) unnamed_addr #4 align 2 {
  %3 = alloca ptr, align 8
  %4 = alloca i32, align 4
  store ptr %0, ptr %3, align 8
  store i32 %1, ptr %4, align 4
  %5 = load ptr, ptr %3, align 8
  store ptr getelementptr inbounds inrange(-16, 16) ({ [4 x ptr] }, ptr @_ZTVN7glslang7TShaderE, i32 0, i32 0, i32 2), ptr %5, align 8
  %6 = getelementptr inbounds %"class.glslang::TShader", ptr %5, i32 0, i32 2
  %7 = load i32, ptr %4, align 4
  store i32 %7, ptr %6, align 8
  %8 = getelementptr inbounds %"class.glslang::TShader", ptr %5, i32 0, i32 8
  store ptr null, ptr %8, align 8
  %9 = getelementptr inbounds %"class.glslang::TShader", ptr %5, i32 0, i32 9
  store ptr null, ptr %9, align 8
  %10 = getelementptr inbounds %"class.glslang::TShader", ptr %5, i32 0, i32 12
  store ptr @.str, ptr %10, align 8
  %11 = getelementptr inbounds %"class.glslang::TShader", ptr %5, i32 0, i32 13
  call void @_ZNSt7__cxx1112basic_stringIcSt11char_traitsIcESaIcEEC1Ev(ptr noundef nonnull align 8 dereferenceable(32) %11) #3
  %12 = getelementptr inbounds %"class.glslang::TShader", ptr %5, i32 0, i32 14
  store i32 0, ptr %12, align 8
  %13 = getelementptr inbounds %"class.glslang::TShader", ptr %5, i32 0, i32 16
  store i8 0, ptr %13, align 4
  %14 = call noalias noundef nonnull ptr @_Znwm(i64 noundef 96) #14
  call void @_ZN7glslang14TPoolAllocatorC1Eii(ptr noundef nonnull align 8 dereferenceable(96) %14, i32 noundef 8192, i32 noundef 16)
  %15 = getelementptr inbounds %"class.glslang::TShader", ptr %5, i32 0, i32 1
  store ptr %14, ptr %15, align 8
  %16 = call noalias noundef nonnull ptr @_Znwm(i64 noundef 96) #14
  call void @_ZN9TInfoSinkC2Ev(ptr noundef nonnull align 8 dereferenceable(96) %16)
  %17 = getelementptr inbounds %"class.glslang::TShader", ptr %5, i32 0, i32 6
  store ptr %16, ptr %17, align 8
  %18 = call noalias noundef nonnull ptr @_Znwm(i64 noundef 32) #14
  %19 = getelementptr inbounds %"class.glslang::TShader", ptr %5, i32 0, i32 2
  %20 = load i32, ptr %19, align 8
  %21 = getelementptr inbounds %"class.glslang::TShader", ptr %5, i32 0, i32 6
  %22 = load ptr, ptr %21, align 8
  call void @_ZN7glslang17TDeferredCompilerC2E11EShLanguageR9TInfoSink(ptr noundef nonnull align 8 dereferenceable(29) %18, i32 noundef %20, ptr noundef nonnull align 8 dereferenceable(96) %22)
  %23 = getelementptr inbounds %"class.glslang::TShader", ptr %5, i32 0, i32 4
  store ptr %18, ptr %23, align 8
  %24 = call noalias noundef nonnull ptr @_Znwm(i64 noundef 2024) #14
  %25 = load i32, ptr %4, align 4
  call void @_ZN7glslang13TIntermediateC2E11EShLanguagei8EProfile(ptr noundef nonnull align 8 dereferenceable(2024) %24, i32 noundef %25, i32 noundef 0, i32 noundef 1)
  %26 = getelementptr inbounds %"class.glslang::TShader", ptr %5, i32 0, i32 5
  store ptr %24, ptr %26, align 8
  %27 = getelementptr inbounds %"class.glslang::TShader", ptr %5, i32 0, i32 15
  %28 = getelementptr inbounds %"struct.glslang::TEnvironment", ptr %27, i32 0, i32 0
  %29 = getelementptr inbounds %"struct.glslang::TInputLanguage", ptr %28, i32 0, i32 0
  store i32 0, ptr %29, align 4
  %30 = getelementptr inbounds %"class.glslang::TShader", ptr %5, i32 0, i32 15
  %31 = getelementptr inbounds %"struct.glslang::TEnvironment", ptr %30, i32 0, i32 0
  %32 = getelementptr inbounds %"struct.glslang::TInputLanguage", ptr %31, i32 0, i32 2
  store i32 0, ptr %32, align 4
  %33 = getelementptr inbounds %"class.glslang::TShader", ptr %5, i32 0, i32 15
  %34 = getelementptr inbounds %"struct.glslang::TEnvironment", ptr %33, i32 0, i32 0
  %35 = getelementptr inbounds %"struct.glslang::TInputLanguage", ptr %34, i32 0, i32 4
  store i8 0, ptr %35, align 4
  %36 = getelementptr inbounds %"class.glslang::TShader", ptr %5, i32 0, i32 15
  %37 = getelementptr inbounds %"struct.glslang::TEnvironment", ptr %36, i32 0, i32 1
  %38 = getelementptr inbounds %"struct.glslang::TClient", ptr %37, i32 0, i32 0
  store i32 0, ptr %38, align 4
  %39 = getelementptr inbounds %"class.glslang::TShader", ptr %5, i32 0, i32 15
  %40 = getelementptr inbounds %"struct.glslang::TEnvironment", ptr %39, i32 0, i32 2
  %41 = getelementptr inbounds %"struct.glslang::TTarget", ptr %40, i32 0, i32 0
  store i32 0, ptr %41, align 4
  %42 = getelementptr inbounds %"class.glslang::TShader", ptr %5, i32 0, i32 15
  %43 = getelementptr inbounds %"struct.glslang::TEnvironment", ptr %42, i32 0, i32 2
  %44 = getelementptr inbounds %"struct.glslang::TTarget", ptr %43, i32 0, i32 2
  store i8 0, ptr %44, align 4
  ret void
}