; Function Attrs: mustprogress nounwind uwtable
define void @_ZN7glslang7TShaderC2E11EShLanguage(ptr noundef nonnull align 8 dereferenceable(165) initializes((0, 8), (16, 20), (56, 72), (80, 88)) %0, i32 noundef %1) unnamed_addr #3 align 2 {
  store ptr getelementptr inbounds nuw inrange(-16, 16) (i8, ptr @_ZTVN7glslang7TShaderE, i64 16), ptr %0, align 8
  %3 = getelementptr inbounds nuw i8, ptr %0, i64 16
  store i32 %1, ptr %3, align 8
  %4 = getelementptr inbounds nuw i8, ptr %0, i64 56
  %5 = getelementptr inbounds nuw i8, ptr %0, i64 80
  tail call void @llvm.memset.p0.i64(ptr noundef nonnull align 8 dereferenceable(16) %4, i8 0, i64 16, i1 false)
  store ptr @.str, ptr %5, align 8
  %6 = getelementptr inbounds nuw i8, ptr %0, i64 88
  tail call void @_ZNSt7__cxx1112basic_stringIcSt11char_traitsIcESaIcEEC1Ev(ptr noundef nonnull align 8 dereferenceable(32) %6) #24
  %7 = getelementptr inbounds nuw i8, ptr %0, i64 120
  store i32 0, ptr %7, align 8
  %8 = getelementptr inbounds nuw i8, ptr %0, i64 164
  store i8 0, ptr %8, align 4
  %9 = tail call noalias noundef nonnull dereferenceable(96) ptr @_Znwm(i64 noundef 96) #26
  tail call void @_ZN7glslang14TPoolAllocatorC1Eii(ptr noundef nonnull align 8 dereferenceable(96) %9, i32 noundef 8192, i32 noundef 16) #24
  %10 = getelementptr inbounds nuw i8, ptr %0, i64 8
  store ptr %9, ptr %10, align 8
  %11 = tail call noalias noundef nonnull dereferenceable(96) ptr @_Znwm(i64 noundef 96) #26
  tail call void @_ZNSt7__cxx1112basic_stringIcSt11char_traitsIcESaIcEEC1Ev(ptr noundef nonnull align 8 dereferenceable(96) %11) #24
  %12 = getelementptr inbounds nuw i8, ptr %11, i64 32
  store i32 4, ptr %12, align 8
  %13 = getelementptr inbounds nuw i8, ptr %11, i64 40
  store ptr null, ptr %13, align 8
  %14 = getelementptr inbounds nuw i8, ptr %11, i64 48
  tail call void @_ZNSt7__cxx1112basic_stringIcSt11char_traitsIcESaIcEEC1Ev(ptr noundef nonnull align 8 dereferenceable(48) %14) #24
  %15 = getelementptr inbounds nuw i8, ptr %11, i64 80
  store i32 4, ptr %15, align 8
  %16 = getelementptr inbounds nuw i8, ptr %11, i64 88
  store ptr null, ptr %16, align 8
  %17 = getelementptr inbounds nuw i8, ptr %0, i64 40
  store ptr %11, ptr %17, align 8
  %18 = tail call noalias noundef nonnull dereferenceable(32) ptr @_Znwm(i64 noundef 32) #26
  %19 = load i32, ptr %3, align 8
  %20 = tail call noalias noundef nonnull dereferenceable(96) ptr @_Znwm(i64 noundef 96) #26
  tail call void @_ZN7glslang14TPoolAllocatorC1Eii(ptr noundef nonnull align 8 dereferenceable(96) %20, i32 noundef 8192, i32 noundef 16) #24
  %21 = getelementptr inbounds nuw i8, ptr %18, i64 8
  store ptr %20, ptr %21, align 8
  %22 = getelementptr inbounds nuw i8, ptr %18, i64 16
  store ptr %11, ptr %22, align 8
  %23 = getelementptr inbounds nuw i8, ptr %18, i64 24
  store i32 %19, ptr %23, align 8
  %24 = getelementptr inbounds nuw i8, ptr %18, i64 28
  store i8 0, ptr %24, align 4
  store ptr getelementptr inbounds nuw inrange(-16, 72) (i8, ptr @_ZTVN7glslang17TDeferredCompilerE, i64 16), ptr %18, align 8
  %25 = getelementptr inbounds nuw i8, ptr %0, i64 24
  store ptr %18, ptr %25, align 8
  %26 = tail call noalias noundef nonnull dereferenceable(2024) ptr @_Znwm(i64 noundef 2024) #26
  tail call void @_ZN7glslang13TIntermediateC2E11EShLanguagei8EProfile(ptr noundef nonnull align 8 dereferenceable(2024) %26, i32 noundef %1, i32 noundef 0, i32 noundef 1)
  %27 = getelementptr inbounds nuw i8, ptr %0, i64 32
  store ptr %26, ptr %27, align 8
  %28 = getelementptr inbounds nuw i8, ptr %0, i64 124
  store i32 0, ptr %28, align 4
  %29 = getelementptr inbounds nuw i8, ptr %0, i64 132
  store i32 0, ptr %29, align 4
  %30 = getelementptr inbounds nuw i8, ptr %0, i64 140
  store i8 0, ptr %30, align 4
  %31 = getelementptr inbounds nuw i8, ptr %0, i64 144
  store i32 0, ptr %31, align 8
  %32 = getelementptr inbounds nuw i8, ptr %0, i64 152
  store i32 0, ptr %32, align 8
  %33 = getelementptr inbounds nuw i8, ptr %0, i64 160
  store i8 0, ptr %33, align 8
  ret void
}